; Function Attrs: nounwind uwtable
define i64 @H5Fget_access_plist(i64 noundef %0) local_unnamed_addr #0 {
  %2 = alloca %struct.H5VL_file_get_args_t, align 8
  %3 = alloca %struct.H5CX_node_t, align 8
  call void @llvm.lifetime.start.p0(i64 40, ptr nonnull %2) #6
  call void @llvm.lifetime.start.p0(i64 480, ptr nonnull %3) #6
  call void @llvm.memset.p0.i64(ptr noundef nonnull align 8 dereferenceable(480) %3, i8 0, i64 480, i1 false)
  %4 = load i8, ptr @H5_libinit_g, align 1, !tbaa !3, !range !7, !noundef !8
  %5 = trunc nuw i8 %4 to i1
  %6 = load i8, ptr @H5_libterm_g, align 1, !range !7
  %7 = trunc nuw i8 %6 to i1
  %8 = select i1 %5, i1 true, i1 %7
  br i1 %8, label %16, label %9, !prof !9

9:                                                ; preds = %1
  %10 = tail call i32 @H5_init_library() #6
  %11 = icmp slt i32 %10, 0
  br i1 %11, label %12, label %._crit_edge, !prof !10

._crit_edge:                                      ; preds = %9
  %.pre = load i8, ptr @H5_libterm_g, align 1, !range !7
  br label %16

12:                                               ; preds = %9
  %13 = load i64, ptr @H5E_FUNC_g, align 8, !tbaa !11
  %14 = load i64, ptr @H5E_CANTINIT_g, align 8, !tbaa !11
  %15 = tail call i32 (ptr, ptr, i32, i64, i64, ptr, ...) @H5E_printf_stack(ptr noundef nonnull @.str, ptr noundef nonnull @__func__.H5Fget_access_plist, i32 noundef 158, i64 noundef %13, i64 noundef %14, ptr noundef nonnull @.str.1) #6
  br label %.thread20

16:                                               ; preds = %._crit_edge, %1
  %17 = phi i8 [ %.pre, %._crit_edge ], [ %6, %1 ]
  %18 = load i8, ptr @H5F_init_g, align 1, !tbaa !3, !range !7, !noundef !8
  %19 = trunc nuw i8 %18 to i1
  %20 = trunc nuw i8 %17 to i1
  %21 = select i1 %19, i1 true, i1 %20
  br i1 %21, label %29, label %22, !prof !9

22:                                               ; preds = %16
  store i8 1, ptr @H5F_init_g, align 1, !tbaa !3
  %23 = tail call i32 @H5F__init_package() #6
  %24 = icmp slt i32 %23, 0
  br i1 %24, label %25, label %29, !prof !13

25:                                               ; preds = %22
  store i8 0, ptr @H5F_init_g, align 1, !tbaa !3
  %26 = load i64, ptr @H5E_FUNC_g, align 8, !tbaa !11
  %27 = load i64, ptr @H5E_CANTINIT_g, align 8, !tbaa !11
  %28 = tail call i32 (ptr, ptr, i32, i64, i64, ptr, ...) @H5E_printf_stack(ptr noundef nonnull @.str, ptr noundef nonnull @__func__.H5Fget_access_plist, i32 noundef 158, i64 noundef %26, i64 noundef %27, ptr noundef nonnull @.str.2) #6
  br label %.thread20

29:                                               ; preds = %16, %22
  %30 = call i32 @H5CX_push(ptr noundef nonnull %3) #6
  %31 = icmp slt i32 %30, 0
  br i1 %31, label %32, label %36, !prof !10

32:                                               ; preds = %29
  %33 = load i64, ptr @H5E_FUNC_g, align 8, !tbaa !11
  %34 = load i64, ptr @H5E_CANTSET_g, align 8, !tbaa !11
  %35 = call i32 (ptr, ptr, i32, i64, i64, ptr, ...) @H5E_printf_stack(ptr noundef nonnull @.str, ptr noundef nonnull @__func__.H5Fget_access_plist, i32 noundef 158, i64 noundef %33, i64 noundef %34, ptr noundef nonnull @.str.3) #6
  br label %.thread20

36:                                               ; preds = %29
  %37 = call i32 @H5E_clear_stack() #6
  %38 = call ptr @H5VL_vol_object_verify(i64 noundef %0, i32 noundef 1) #6
  %39 = icmp eq ptr %38, null
  br i1 %39, label %40, label %44, !prof !14

40:                                               ; preds = %36
  %41 = load i64, ptr @H5E_ARGS_g, align 8, !tbaa !11
  %42 = load i64, ptr @H5E_BADTYPE_g, align 8, !tbaa !11
  %43 = call i32 (ptr, ptr, i32, i64, i64, ptr, ...) @H5E_printf_stack(ptr noundef nonnull @.str, ptr noundef nonnull @__func__.H5Fget_access_plist, i32 noundef 162, i64 noundef %41, i64 noundef %42, ptr noundef nonnull @.str.4) #6
  br label %.thread26

44:                                               ; preds = %36
  store i32 1, ptr %2, align 8, !tbaa !15
  %45 = getelementptr inbounds nuw i8, ptr %2, i64 8
  store i64 -1, ptr %45, align 8, !tbaa !18
  %46 = load i64, ptr @H5P_LST_DATASET_XFER_ID_g, align 8, !tbaa !11
  %47 = call i32 @H5VL_file_get(ptr noundef nonnull %38, ptr noundef nonnull %2, i64 noundef %46, ptr noundef null) #6
  %48 = icmp slt i32 %47, 0
  br i1 %48, label %49, label %54, !prof !14

49:                                               ; preds = %44
  %50 = load i64, ptr @H5E_FILE_g, align 8, !tbaa !11
  %51 = load i64, ptr @H5E_CANTGET_g, align 8, !tbaa !11
  %52 = call i32 (ptr, ptr, i32, i64, i64, ptr, ...) @H5E_printf_stack(ptr noundef nonnull @.str, ptr noundef nonnull @__func__.H5Fget_access_plist, i32 noundef 170, i64 noundef %50, i64 noundef %51, ptr noundef nonnull @.str.6) #6
  br label %.thread26

.thread26:                                        ; preds = %49, %40
  %53 = call i32 @H5CX_pop(i1 noundef zeroext true) #6
  br label %.thread20

54:                                               ; preds = %44
  %55 = load i64, ptr %45, align 8, !tbaa !18
  %56 = call i32 @H5CX_pop(i1 noundef zeroext true) #6
  br label %58

.thread20:                                        ; preds = %32, %25, %12, %.thread26
  %57 = call i32 @H5E_dump_api_stack() #6
  br label %58

58:                                               ; preds = %54, %.thread20
  %.0101523 = phi i64 [ -1, %.thread20 ], [ %55, %54 ]
  call void @llvm.lifetime.end.p0(i64 480, ptr nonnull %3) #6
  call void @llvm.lifetime.end.p0(i64 40, ptr nonnull %2) #6
  ret i64 %.0101523
}